; Function Attrs: mustprogress uwtable
define hidden noundef zeroext i1 @_ZNK7datalog17external_relation13contains_factERKNS_13relation_factE(ptr nocapture noundef nonnull align 8 dereferenceable(96) %this, ptr nocapture noundef nonnull readonly align 8 dereferenceable(16) %f) unnamed_addr #3 align 2 personality ptr @__gxx_personality_v0 {
entry:
  %res = alloca %class.obj_ref, align 8
  %m_plugin.i.i = getelementptr inbounds i8, ptr %this, i64 8
  %0 = load ptr, ptr %m_plugin.i.i, align 8
  %m_manager.i = getelementptr inbounds i8, ptr %0, i64 24
  %1 = load ptr, ptr %m_manager.i, align 8
  %call.i = tail call noundef nonnull align 8 dereferenceable(976) ptr @_ZN7datalog32get_ast_manager_from_rel_managerERKNS_16relation_managerE(ptr noundef nonnull align 1 %1)
  store ptr null, ptr %res, align 8
  %m_manager.i2 = getelementptr inbounds i8, ptr %res, i64 8
  store ptr %call.i, ptr %m_manager.i2, align 8
  %m_select_fn = getelementptr inbounds i8, ptr %this, i64 48
  invoke void @_ZNK7datalog17external_relation11mk_accessorEiR7obj_refI9func_decl11ast_managerERKNS_13relation_factEbRS1_I4exprS3_E(ptr noundef nonnull align 8 dereferenceable(96) %this, i32 noundef 11, ptr noundef nonnull align 8 dereferenceable(16) %m_select_fn, ptr noundef nonnull align 8 dereferenceable(16) %f, i1 noundef zeroext false, ptr noundef nonnull align 8 dereferenceable(16) %res)
          to label %invoke.cont unwind label %lpad

invoke.cont:                                      ; preds = %entry
  %2 = load ptr, ptr %res, align 8
  %m_false.i = getelementptr inbounds i8, ptr %call.i, i64 864
  %3 = load ptr, ptr %m_false.i, align 8
  %tobool.not.i.i = icmp eq ptr %2, null
  br i1 %tobool.not.i.i, label %_ZN7obj_refI4expr11ast_managerED2Ev.exit, label %if.then.i.i.i

if.then.i.i.i:                                    ; preds = %invoke.cont
  %4 = load ptr, ptr %m_manager.i2, align 8
  %m_ref_count.i.i.i.i = getelementptr inbounds i8, ptr %2, i64 8
  %5 = load i32, ptr %m_ref_count.i.i.i.i, align 4
  %dec.i.i.i.i = add i32 %5, -1
  store i32 %dec.i.i.i.i, ptr %m_ref_count.i.i.i.i, align 4
  %cmp.i.i.i = icmp eq i32 %dec.i.i.i.i, 0
  br i1 %cmp.i.i.i, label %if.then2.i.i.i, label %_ZN7obj_refI4expr11ast_managerED2Ev.exit

if.then2.i.i.i:                                   ; preds = %if.then.i.i.i
  invoke void @_ZN11ast_manager11delete_nodeEP3ast(ptr noundef nonnull align 8 dereferenceable(976) %4, ptr noundef nonnull %2)
          to label %_ZN7obj_refI4expr11ast_managerED2Ev.exit unwind label %terminate.lpad.i

terminate.lpad.i:                                 ; preds = %if.then2.i.i.i
  %6 = landingpad { ptr, i32 }
          catch ptr null
  %7 = extractvalue { ptr, i32 } %6, 0
  call void @__clang_call_terminate(ptr %7) #18
  unreachable

_ZN7obj_refI4expr11ast_managerED2Ev.exit:         ; preds = %invoke.cont, %if.then.i.i.i, %if.then2.i.i.i
  %cmp.i = icmp ne ptr %3, %2
  ret i1 %cmp.i

lpad:                                             ; preds = %entry
  %8 = landingpad { ptr, i32 }
          cleanup
  call void @_ZN7obj_refI4expr11ast_managerED2Ev(ptr noundef nonnull align 8 dereferenceable(16) %res) #17
  resume { ptr, i32 } %8
}